(lp1
(dp2
S'neps'
p3
I100
sS'inita'
p4
cnumpy.core.multiarray
scalar
p5
(cnumpy
dtype
p6
(S'f8'
I0
I1
tRp7
(I3
S'<'
NNNI-1
I-1
I0
tbS'\xfc\xa9\xf1\xd2MbP?'
tRp8
sS'mright'
p9
F0.5
sS'pright'
p10
F0.98999999999999999
sS'inits'
p11
I2
sS'algname'
p12
S'wislstd'
p13
sS'nf'
p14
I2
sS'ftype'
p15
S'binary'
p16
sS'ns'
p17
I5
sS'gamma'
p18
F1
sS'lambda'
p19
g5
(g7
S'\x00\x00\x00\x00\x00\x00\x00\x00'
tRp20
sa(dp21
g3
I100
sg4
g8
sg9
F0.5
sg10
F0.98999999999999999
sg11
I2
sg12
g13
sg14
I2
sg15
g16
sg17
I5
sg18
F1
sg19
g5
(g7
S'\x00\x00\x00\x00\x00\x00\xe0?'
tRp22
sa(dp23
g3
I100
sg4
g8
sg9
F0.5
sg10
F0.98999999999999999
sg11
I2
sg12
g13
sg14
I2
sg15
g16
sg17
I5
sg18
F1
sg19
g5
(g7
S'\xcd\xcc\xcc\xcc\xcc\xcc\xec?'
tRp24
sa(dp25
g3
I100
sg4
g8
sg9
F0.5
sg10
F0.98999999999999999
sg11
I2
sg12
g13
sg14
I2
sg15
g16
sg17
I5
sg18
F1
sg19
g5
(g7
S'ffffff\xee?'
tRp26
sa(dp27
g3
I100
sg4
g8
sg9
F0.5
sg10
F0.98999999999999999
sg11
I2
sg12
g13
sg14
I2
sg15
g16
sg17
I5
sg18
F1
sg19
g5
(g7
S'\xaeG\xe1z\x14\xae\xef?'
tRp28
sa(dp29
g3
I100
sg4
g8
sg9
F0.5
sg10
F0.98999999999999999
sg11
I2
sg12
g13
sg14
I2
sg15
g16
sg17
I5
sg18
F1
sg19
g5
(g7
S'\x00\x00\x00\x00\x00\x00\xf0?'
tRp30
sa(dp31
g3
I100
sg4
g5
(g7
S'{\x14\xaeG\xe1z\x84?'
tRp32
sg9
F0.5
sg10
F0.98999999999999999
sg11
I2
sg12
g13
sg14
I2
sg15
g16
sg17
I5
sg18
F1
sg19
g5
(g7
S'\x00\x00\x00\x00\x00\x00\x00\x00'
tRp33
sa(dp34
g3
I100
sg4
g32
sg9
F0.5
sg10
F0.98999999999999999
sg11
I2
sg12
g13
sg14
I2
sg15
g16
sg17
I5
sg18
F1
sg19
g5
(g7
S'\x00\x00\x00\x00\x00\x00\xe0?'
tRp35
sa(dp36
g3
I100
sg4
g32
sg9
F0.5
sg10
F0.98999999999999999
sg11
I2
sg12
g13
sg14
I2
sg15
g16
sg17
I5
sg18
F1
sg19
g5
(g7
S'\xcd\xcc\xcc\xcc\xcc\xcc\xec?'
tRp37
sa(dp38
g3
I100
sg4
g32
sg9
F0.5
sg10
F0.98999999999999999
sg11
I2
sg12
g13
sg14
I2
sg15
g16
sg17
I5
sg18
F1
sg19
g5
(g7
S'ffffff\xee?'
tRp39
sa(dp40
g3
I100
sg4
g32
sg9
F0.5
sg10
F0.98999999999999999
sg11
I2
sg12
g13
sg14
I2
sg15
g16
sg17
I5
sg18
F1
sg19
g5
(g7
S'\xaeG\xe1z\x14\xae\xef?'
tRp41
sa(dp42
g3
I100
sg4
g32
sg9
F0.5
sg10
F0.98999999999999999
sg11
I2
sg12
g13
sg14
I2
sg15
g16
sg17
I5
sg18
F1
sg19
g5
(g7
S'\x00\x00\x00\x00\x00\x00\xf0?'
tRp43
sa(dp44
g3
I100
sg4
g5
(g7
S'\x9a\x99\x99\x99\x99\x99\xb9?'
tRp45
sg9
F0.5
sg10
F0.98999999999999999
sg11
I2
sg12
g13
sg14
I2
sg15
g16
sg17
I5
sg18
F1
sg19
g5
(g7
S'\x00\x00\x00\x00\x00\x00\x00\x00'
tRp46
sa(dp47
g3
I100
sg4
g45
sg9
F0.5
sg10
F0.98999999999999999
sg11
I2
sg12
g13
sg14
I2
sg15
g16
sg17
I5
sg18
F1
sg19
g5
(g7
S'\x00\x00\x00\x00\x00\x00\xe0?'
tRp48
sa(dp49
g3
I100
sg4
g45
sg9
F0.5
sg10
F0.98999999999999999
sg11
I2
sg12
g13
sg14
I2
sg15
g16
sg17
I5
sg18
F1
sg19
g5
(g7
S'\xcd\xcc\xcc\xcc\xcc\xcc\xec?'
tRp50
sa(dp51
g3
I100
sg4
g45
sg9
F0.5
sg10
F0.98999999999999999
sg11
I2
sg12
g13
sg14
I2
sg15
g16
sg17
I5
sg18
F1
sg19
g5
(g7
S'ffffff\xee?'
tRp52
sa(dp53
g3
I100
sg4
g45
sg9
F0.5
sg10
F0.98999999999999999
sg11
I2
sg12
g13
sg14
I2
sg15
g16
sg17
I5
sg18
F1
sg19
g5
(g7
S'\xaeG\xe1z\x14\xae\xef?'
tRp54
sa(dp55
g3
I100
sg4
g45
sg9
F0.5
sg10
F0.98999999999999999
sg11
I2
sg12
g13
sg14
I2
sg15
g16
sg17
I5
sg18
F1
sg19
g5
(g7
S'\x00\x00\x00\x00\x00\x00\xf0?'
tRp56
sa(dp57
g3
I100
sg4
g5
(g7
S'\x00\x00\x00\x00\x00\x00\xf0?'
tRp58
sg9
F0.5
sg10
F0.98999999999999999
sg11
I2
sg12
g13
sg14
I2
sg15
g16
sg17
I5
sg18
F1
sg19
g5
(g7
S'\x00\x00\x00\x00\x00\x00\x00\x00'
tRp59
sa(dp60
g3
I100
sg4
g58
sg9
F0.5
sg10
F0.98999999999999999
sg11
I2
sg12
g13
sg14
I2
sg15
g16
sg17
I5
sg18
F1
sg19
g5
(g7
S'\x00\x00\x00\x00\x00\x00\xe0?'
tRp61
sa(dp62
g3
I100
sg4
g58
sg9
F0.5
sg10
F0.98999999999999999
sg11
I2
sg12
g13
sg14
I2
sg15
g16
sg17
I5
sg18
F1
sg19
g5
(g7
S'\xcd\xcc\xcc\xcc\xcc\xcc\xec?'
tRp63
sa(dp64
g3
I100
sg4
g58
sg9
F0.5
sg10
F0.98999999999999999
sg11
I2
sg12
g13
sg14
I2
sg15
g16
sg17
I5
sg18
F1
sg19
g5
(g7
S'ffffff\xee?'
tRp65
sa(dp66
g3
I100
sg4
g58
sg9
F0.5
sg10
F0.98999999999999999
sg11
I2
sg12
g13
sg14
I2
sg15
g16
sg17
I5
sg18
F1
sg19
g5
(g7
S'\xaeG\xe1z\x14\xae\xef?'
tRp67
sa(dp68
g3
I100
sg4
g58
sg9
F0.5
sg10
F0.98999999999999999
sg11
I2
sg12
g13
sg14
I2
sg15
g16
sg17
I5
sg18
F1
sg19
g5
(g7
S'\x00\x00\x00\x00\x00\x00\xf0?'
tRp69
sa(dp70
g3
I100
sg4
g5
(g7
S'\x00\x00\x00\x00\x00\x00$@'
tRp71
sg9
F0.5
sg10
F0.98999999999999999
sg11
I2
sg12
g13
sg14
I2
sg15
g16
sg17
I5
sg18
F1
sg19
g5
(g7
S'\x00\x00\x00\x00\x00\x00\x00\x00'
tRp72
sa(dp73
g3
I100
sg4
g71
sg9
F0.5
sg10
F0.98999999999999999
sg11
I2
sg12
g13
sg14
I2
sg15
g16
sg17
I5
sg18
F1
sg19
g5
(g7
S'\x00\x00\x00\x00\x00\x00\xe0?'
tRp74
sa(dp75
g3
I100
sg4
g71
sg9
F0.5
sg10
F0.98999999999999999
sg11
I2
sg12
g13
sg14
I2
sg15
g16
sg17
I5
sg18
F1
sg19
g5
(g7
S'\xcd\xcc\xcc\xcc\xcc\xcc\xec?'
tRp76
sa(dp77
g3
I100
sg4
g71
sg9
F0.5
sg10
F0.98999999999999999
sg11
I2
sg12
g13
sg14
I2
sg15
g16
sg17
I5
sg18
F1
sg19
g5
(g7
S'ffffff\xee?'
tRp78
sa(dp79
g3
I100
sg4
g71
sg9
F0.5
sg10
F0.98999999999999999
sg11
I2
sg12
g13
sg14
I2
sg15
g16
sg17
I5
sg18
F1
sg19
g5
(g7
S'\xaeG\xe1z\x14\xae\xef?'
tRp80
sa(dp81
g3
I100
sg4
g71
sg9
F0.5
sg10
F0.98999999999999999
sg11
I2
sg12
g13
sg14
I2
sg15
g16
sg17
I5
sg18
F1
sg19
g5
(g7
S'\x00\x00\x00\x00\x00\x00\xf0?'
tRp82
sa(dp83
g3
I100
sg4
g5
(g7
S'\x00\x00\x00\x00\x00\x00Y@'
tRp84
sg9
F0.5
sg10
F0.98999999999999999
sg11
I2
sg12
g13
sg14
I2
sg15
g16
sg17
I5
sg18
F1
sg19
g5
(g7
S'\x00\x00\x00\x00\x00\x00\x00\x00'
tRp85
sa(dp86
g3
I100
sg4
g84
sg9
F0.5
sg10
F0.98999999999999999
sg11
I2
sg12
g13
sg14
I2
sg15
g16
sg17
I5
sg18
F1
sg19
g5
(g7
S'\x00\x00\x00\x00\x00\x00\xe0?'
tRp87
sa(dp88
g3
I100
sg4
g84
sg9
F0.5
sg10
F0.98999999999999999
sg11
I2
sg12
g13
sg14
I2
sg15
g16
sg17
I5
sg18
F1
sg19
g5
(g7
S'\xcd\xcc\xcc\xcc\xcc\xcc\xec?'
tRp89
sa(dp90
g3
I100
sg4
g84
sg9
F0.5
sg10
F0.98999999999999999
sg11
I2
sg12
g13
sg14
I2
sg15
g16
sg17
I5
sg18
F1
sg19
g5
(g7
S'ffffff\xee?'
tRp91
sa(dp92
g3
I100
sg4
g84
sg9
F0.5
sg10
F0.98999999999999999
sg11
I2
sg12
g13
sg14
I2
sg15
g16
sg17
I5
sg18
F1
sg19
g5
(g7
S'\xaeG\xe1z\x14\xae\xef?'
tRp93
sa(dp94
g3
I100
sg4
g84
sg9
F0.5
sg10
F0.98999999999999999
sg11
I2
sg12
g13
sg14
I2
sg15
g16
sg17
I5
sg18
F1
sg19
g5
(g7
S'\x00\x00\x00\x00\x00\x00\xf0?'
tRp95
sa(dp96
g3
I100
sg4
g5
(g7
S'\x00\x00\x00\x00\x00@\x8f@'
tRp97
sg9
F0.5
sg10
F0.98999999999999999
sg11
I2
sg12
g13
sg14
I2
sg15
g16
sg17
I5
sg18
F1
sg19
g5
(g7
S'\x00\x00\x00\x00\x00\x00\x00\x00'
tRp98
sa(dp99
g3
I100
sg4
g97
sg9
F0.5
sg10
F0.98999999999999999
sg11
I2
sg12
g13
sg14
I2
sg15
g16
sg17
I5
sg18
F1
sg19
g5
(g7
S'\x00\x00\x00\x00\x00\x00\xe0?'
tRp100
sa(dp101
g3
I100
sg4
g97
sg9
F0.5
sg10
F0.98999999999999999
sg11
I2
sg12
g13
sg14
I2
sg15
g16
sg17
I5
sg18
F1
sg19
g5
(g7
S'\xcd\xcc\xcc\xcc\xcc\xcc\xec?'
tRp102
sa(dp103
g3
I100
sg4
g97
sg9
F0.5
sg10
F0.98999999999999999
sg11
I2
sg12
g13
sg14
I2
sg15
g16
sg17
I5
sg18
F1
sg19
g5
(g7
S'ffffff\xee?'
tRp104
sa(dp105
g3
I100
sg4
g97
sg9
F0.5
sg10
F0.98999999999999999
sg11
I2
sg12
g13
sg14
I2
sg15
g16
sg17
I5
sg18
F1
sg19
g5
(g7
S'\xaeG\xe1z\x14\xae\xef?'
tRp106
sa(dp107
g3
I100
sg4
g97
sg9
F0.5
sg10
F0.98999999999999999
sg11
I2
sg12
g13
sg14
I2
sg15
g16
sg17
I5
sg18
F1
sg19
g5
(g7
S'\x00\x00\x00\x00\x00\x00\xf0?'
tRp108
sa.